# SymbolsHelper-Confirmed: 6.4.0 amd64
libQt6QuickTimeline.so.6 libqt6quicktimeline6 #MINVER#
* Build-Depends-Package: libqt6quicktimeline6-dev
 _Z35qml_register_types_QtQuick_Timelinev@Base 6.2.1
 _ZN14QQuickKeyframe11qt_metacallEN11QMetaObject4CallEiPPv@Base 6.2.1
 _ZN14QQuickKeyframe11qt_metacastEPKc@Base 6.2.1
 _ZN14QQuickKeyframe12frameChangedEv@Base 6.2.1
 _ZN14QQuickKeyframe12valueChangedEv@Base 6.2.1
 _ZN14QQuickKeyframe16staticMetaObjectE@Base 6.2.1
 _ZN14QQuickKeyframe18easingCurveChangedEv@Base 6.2.1
 _ZN14QQuickKeyframe5resetEv@Base 6.2.1
 _ZN14QQuickKeyframe8setFrameEd@Base 6.2.1
 _ZN14QQuickKeyframe8setValueERK8QVariant@Base 6.2.1
 _ZN14QQuickKeyframe9setEasingERK12QEasingCurve@Base 6.2.1
 _ZN14QQuickKeyframeC1EP7QObject@Base 6.2.1
 _ZN14QQuickKeyframeC1ER21QQuickKeyframePrivateP7QObject@Base 6.2.1
 _ZN14QQuickKeyframeC2EP7QObject@Base 6.2.1
 _ZN14QQuickKeyframeC2ER21QQuickKeyframePrivateP7QObject@Base 6.2.1
 _ZN14QQuickTimeline10animationsEv@Base 6.2.1
 _ZN14QQuickTimeline10classBeginEv@Base 6.2.1
 _ZN14QQuickTimeline10reevaluateEv@Base 6.2.1
 _ZN14QQuickTimeline10setEnabledEb@Base 6.2.1
 _ZN14QQuickTimeline11qt_metacallEN11QMetaObject4CallEiPPv@Base 6.2.1
 _ZN14QQuickTimeline11qt_metacastEPKc@Base 6.2.1
 _ZN14QQuickTimeline11setEndFrameEd@Base 6.2.1
 _ZN14QQuickTimeline13setStartFrameEd@Base 6.2.1
 _ZN14QQuickTimeline14enabledChangedEv@Base 6.2.1
 _ZN14QQuickTimeline14keyframeGroupsEv@Base 6.2.1
 _ZN14QQuickTimeline15endFrameChangedEv@Base 6.2.1
 _ZN14QQuickTimeline15setCurrentFrameEd@Base 6.2.1
 _ZN14QQuickTimeline16staticMetaObjectE@Base 6.2.1
 _ZN14QQuickTimeline17componentCompleteEv@Base 6.2.1
 _ZN14QQuickTimeline17startFrameChangedEv@Base 6.2.1
 _ZN14QQuickTimeline19currentFrameChangedEv@Base 6.2.1
 _ZN14QQuickTimeline4initEv@Base 6.2.1
 _ZN14QQuickTimeline5resetEv@Base 6.2.1
 _ZN14QQuickTimelineC1EP7QObject@Base 6.2.1
 _ZN14QQuickTimelineC2EP7QObject@Base 6.2.1
 _ZN19QQuickKeyframeGroup10classBeginEv@Base 6.2.1
 _ZN19QQuickKeyframeGroup11qt_metacallEN11QMetaObject4CallEiPPv@Base 6.2.1
 _ZN19QQuickKeyframeGroup11qt_metacastEPKc@Base 6.2.1
 _ZN19QQuickKeyframeGroup11setPropertyERK7QString@Base 6.2.1
 _ZN19QQuickKeyframeGroup11setPropertyEd@Base 6.2.1
 _ZN19QQuickKeyframeGroup13targetChangedEv@Base 6.2.1
 _ZN19QQuickKeyframeGroup14setupKeyframesEv@Base 6.2.1
 _ZN19QQuickKeyframeGroup15propertyChangedEv@Base 6.2.1
 _ZN19QQuickKeyframeGroup15setKeyframeDataERK10QByteArray@Base 6.2.1
 _ZN19QQuickKeyframeGroup15setTargetObjectEP7QObject@Base 6.2.1
 _ZN19QQuickKeyframeGroup16staticMetaObjectE@Base 6.2.1
 _ZN19QQuickKeyframeGroup17componentCompleteEv@Base 6.2.1
 _ZN19QQuickKeyframeGroup17resetDefaultValueEv@Base 6.2.1
 _ZN19QQuickKeyframeGroup17setKeyframeSourceERK4QUrl@Base 6.2.1
 _ZN19QQuickKeyframeGroup21keyframeSourceChangedEv@Base 6.2.1
 _ZN19QQuickKeyframeGroup4initEv@Base 6.2.1
 _ZN19QQuickKeyframeGroup5resetEv@Base 6.2.1
 _ZN19QQuickKeyframeGroup9keyframesEv@Base 6.2.1
 _ZN19QQuickKeyframeGroupC1EP7QObject@Base 6.2.1
 _ZN19QQuickKeyframeGroupC2EP7QObject@Base 6.2.1
 _ZN23QQuickTimelineAnimation11qt_metacallEN11QMetaObject4CallEiPPv@Base 6.2.1
 _ZN23QQuickTimelineAnimation11qt_metacastEPKc@Base 6.2.1
 _ZN23QQuickTimelineAnimation11setPingPongEb@Base 6.2.1
 _ZN23QQuickTimelineAnimation13handleStartedEv@Base 6.2.1
 _ZN23QQuickTimelineAnimation13handleStoppedEv@Base 6.2.1
 _ZN23QQuickTimelineAnimation15pingPongChangedEv@Base 6.2.1
 _ZN23QQuickTimelineAnimation16staticMetaObjectE@Base 6.2.1
 _ZN23QQuickTimelineAnimation8finishedEv@Base 6.2.1
 _ZN23QQuickTimelineAnimationC1EP7QObject@Base 6.2.1
 _ZN23QQuickTimelineAnimationC2EP7QObject@Base 6.2.1
 _ZNK14QQuickKeyframe10metaObjectEv@Base 6.2.1
 _ZNK14QQuickKeyframe5frameEv@Base 6.2.1
 _ZNK14QQuickKeyframe5valueEv@Base 6.2.1
 _ZNK14QQuickKeyframe6easingEv@Base 6.2.1
 _ZNK14QQuickKeyframe8evaluateEPS_di@Base 6.2.1
 _ZNK14QQuickTimeline10metaObjectEv@Base 6.2.1
 _ZNK14QQuickTimeline10startFrameEv@Base 6.2.1
 _ZNK14QQuickTimeline12currentFrameEv@Base 6.2.1
 _ZNK14QQuickTimeline13getAnimationsEv@Base 6.2.1
 _ZNK14QQuickTimeline7enabledEv@Base 6.2.1
 _ZNK14QQuickTimeline8endFrameEv@Base 6.2.1
 _ZNK19QQuickKeyframeGroup10metaObjectEv@Base 6.2.1
 _ZNK19QQuickKeyframeGroup12keyframeDataEv@Base 6.2.1
 _ZNK19QQuickKeyframeGroup14keyframeSourceEv@Base 6.2.1
 _ZNK19QQuickKeyframeGroup6targetEv@Base 6.2.1
 _ZNK19QQuickKeyframeGroup8evaluateEd@Base 6.2.1
 _ZNK19QQuickKeyframeGroup8propertyEv@Base 6.2.1
 _ZNK23QQuickTimelineAnimation10metaObjectEv@Base 6.2.1
 _ZNK23QQuickTimelineAnimation8pingPongEv@Base 6.2.1
 _ZTI14QQuickKeyframe@Base 6.2.1
 _ZTI14QQuickTimeline@Base 6.2.1
 _ZTI19QQuickKeyframeGroup@Base 6.2.1
 _ZTI23QQuickTimelineAnimation@Base 6.2.1
 _ZTS14QQuickKeyframe@Base 6.2.1
 _ZTS14QQuickTimeline@Base 6.2.1
 _ZTS19QQuickKeyframeGroup@Base 6.2.1
 _ZTS23QQuickTimelineAnimation@Base 6.2.1
 _ZTV14QQuickKeyframe@Base 6.2.1
 _ZTV14QQuickTimeline@Base 6.2.1
 _ZTV19QQuickKeyframeGroup@Base 6.2.1
 _ZTV23QQuickTimelineAnimation@Base 6.2.1
 (c++)"non-virtual thunk to QQuickKeyframeGroup::classBegin()@Base" 6.2.1
 (c++)"non-virtual thunk to QQuickKeyframeGroup::componentComplete()@Base" 6.2.1
 (c++)"non-virtual thunk to QQuickTimeline::classBegin()@Base" 6.2.1
 (c++)"non-virtual thunk to QQuickTimeline::componentComplete()@Base" 6.2.1
